target datalayout = "e-m:e-p270:32:32-p271:32:32-p272:64:64-i64:64-i128:128-f80:128-n8:16:32:64-S128"
target triple = "x86_64-pc-linux-gnu"

%struct.Mini_Aig_t_ = type { i32, i32, i32, ptr }

@.str.38 = private unnamed_addr constant [3 x i8] c"wb\00", align 1
@.str.39 = private unnamed_addr constant [36 x i8] c"Cannot open file for writing \22%s\22.\0A\00", align 1

; Function Attrs: nounwind uwtable
define internal void @Mini_AigStop(ptr noundef %0) #0 {
  %2 = alloca ptr, align 8
  store ptr %0, ptr %2, align 8, !tbaa !10
  %3 = load ptr, ptr %2, align 8, !tbaa !10
  %4 = getelementptr inbounds nuw %struct.Mini_Aig_t_, ptr %3, i32 0, i32 3
  %5 = load ptr, ptr %4, align 8, !tbaa !14
  %6 = icmp ne ptr %5, null
  br i1 %6, label %7, label %13

7:                                                ; preds = %1
  %8 = load ptr, ptr %2, align 8, !tbaa !10
  %9 = getelementptr inbounds nuw %struct.Mini_Aig_t_, ptr %8, i32 0, i32 3
  %10 = load ptr, ptr %9, align 8, !tbaa !14
  call void @free(ptr noundef %10) #13
  %11 = load ptr, ptr %2, align 8, !tbaa !10
  %12 = getelementptr inbounds nuw %struct.Mini_Aig_t_, ptr %11, i32 0, i32 3
  store ptr null, ptr %12, align 8, !tbaa !14
  br label %14

13:                                               ; preds = %1
  br label %14

14:                                               ; preds = %13, %7
  %15 = load ptr, ptr %2, align 8, !tbaa !10
  %16 = icmp ne ptr %15, null
  br i1 %16, label %17, label %19

17:                                               ; preds = %14
  %18 = load ptr, ptr %2, align 8, !tbaa !10
  call void @free(ptr noundef %18) #13
  store ptr null, ptr %2, align 8, !tbaa !10
  br label %20

19:                                               ; preds = %14
  br label %20

20:                                               ; preds = %19, %17
  ret void
}

; Function Attrs: nounwind uwtable
define internal void @Mini_AigDump(ptr noundef %0, ptr noundef %1) #0 {
  %3 = alloca ptr, align 8
  %4 = alloca ptr, align 8
  %5 = alloca ptr, align 8
  %6 = alloca i32, align 4
  %7 = alloca i32, align 4
  store ptr %0, ptr %3, align 8, !tbaa !10
  store ptr %1, ptr %4, align 8, !tbaa !42
  call void @llvm.lifetime.start.p0(i64 8, ptr %5) #13
  call void @llvm.lifetime.start.p0(i64 4, ptr %6) #13
  %8 = load ptr, ptr %4, align 8, !tbaa !42
  %9 = call noalias ptr @fopen(ptr noundef %8, ptr noundef @.str.38)
  store ptr %9, ptr %5, align 8, !tbaa !69
  %10 = load ptr, ptr %5, align 8, !tbaa !69
  %11 = icmp eq ptr %10, null
  br i1 %11, label %12, label %15

12:                                               ; preds = %2
  %13 = load ptr, ptr %4, align 8, !tbaa !42
  %14 = call i32 (ptr, ...) @printf(ptr noundef @.str.39, ptr noundef %13)
  store i32 1, ptr %7, align 4
  br label %38

15:                                               ; preds = %2
  %16 = load ptr, ptr %3, align 8, !tbaa !10
  %17 = getelementptr inbounds nuw %struct.Mini_Aig_t_, ptr %16, i32 0, i32 1
  %18 = load ptr, ptr %5, align 8, !tbaa !69
  %19 = call i64 @fwrite(ptr noundef %17, i64 noundef 4, i64 noundef 1, ptr noundef %18)
  %20 = trunc i64 %19 to i32
  store i32 %20, ptr %6, align 4, !tbaa !12
  %21 = load ptr, ptr %3, align 8, !tbaa !10
  %22 = getelementptr inbounds nuw %struct.Mini_Aig_t_, ptr %21, i32 0, i32 2
  %23 = load ptr, ptr %5, align 8, !tbaa !69
  %24 = call i64 @fwrite(ptr noundef %22, i64 noundef 4, i64 noundef 1, ptr noundef %23)
  %25 = trunc i64 %24 to i32
  store i32 %25, ptr %6, align 4, !tbaa !12
  %26 = load ptr, ptr %3, align 8, !tbaa !10
  %27 = getelementptr inbounds nuw %struct.Mini_Aig_t_, ptr %26, i32 0, i32 3
  %28 = load ptr, ptr %27, align 8, !tbaa !14
  %29 = load ptr, ptr %3, align 8, !tbaa !10
  %30 = getelementptr inbounds nuw %struct.Mini_Aig_t_, ptr %29, i32 0, i32 1
  %31 = load i32, ptr %30, align 4, !tbaa !41
  %32 = sext i32 %31 to i64
  %33 = load ptr, ptr %5, align 8, !tbaa !69
  %34 = call i64 @fwrite(ptr noundef %28, i64 noundef 4, i64 noundef %32, ptr noundef %33)
  %35 = trunc i64 %34 to i32
  store i32 %35, ptr %6, align 4, !tbaa !12
  %36 = load ptr, ptr %5, align 8, !tbaa !69
  %37 = call i32 @fclose(ptr noundef %36)
  store i32 0, ptr %7, align 4
  br label %38

38:                                               ; preds = %15, %12
  call void @llvm.lifetime.end.p0(i64 4, ptr %6) #13
  call void @llvm.lifetime.end.p0(i64 8, ptr %5) #13
  %39 = load i32, ptr %7, align 4
  switch i32 %39, label %41 [
    i32 0, label %40
    i32 1, label %40
  ]

40:                                               ; preds = %38, %38
  ret void

41:                                               ; preds = %38
  unreachable
}

; Function Attrs: nounwind uwtable
define void @Gia_ManWriteMiniAig(ptr noundef %0, ptr noundef %1) #0 {
  %3 = alloca ptr, align 8
  %4 = alloca ptr, align 8
  %5 = alloca ptr, align 8
  store ptr %0, ptr %3, align 8, !tbaa !3
  store ptr %1, ptr %4, align 8, !tbaa !42
  call void @llvm.lifetime.start.p0(i64 8, ptr %5) #13
  %6 = load ptr, ptr %3, align 8, !tbaa !3
  %7 = call ptr @Gia_ManToMiniAig(ptr noundef %6)
  store ptr %7, ptr %5, align 8, !tbaa !10
  %8 = load ptr, ptr %5, align 8, !tbaa !10
  %9 = load ptr, ptr %4, align 8, !tbaa !42
  call void @Mini_AigDump(ptr noundef %8, ptr noundef %9)
  %10 = load ptr, ptr %5, align 8, !tbaa !10
  call void @Mini_AigStop(ptr noundef %10)
  call void @llvm.lifetime.end.p0(i64 8, ptr %5) #13
  ret void
}