; Function Attrs: nounwind uwtable
define void @Gia_ManWriteMiniAig(ptr noundef readonly captures(none) %0, ptr noundef %1) local_unnamed_addr #2 {
  %3 = tail call ptr @Gia_ManToMiniAig(ptr noundef %0)
  %4 = tail call noalias ptr @fopen(ptr noundef %1, ptr noundef nonnull @.str.38)
  %5 = icmp eq ptr %4, null
  br i1 %5, label %6, label %8

6:                                                ; preds = %2
  %7 = tail call i32 (ptr, ...) @printf(ptr noundef nonnull dereferenceable(1) @.str.39, ptr noundef %1)
  %.phi.trans.insert = getelementptr inbounds nuw i8, ptr %3, i64 16
  %.pre = load ptr, ptr %.phi.trans.insert, align 8, !tbaa !3
  br label %Mini_AigDump.exit

8:                                                ; preds = %2
  %9 = getelementptr inbounds nuw i8, ptr %3, i64 4
  %10 = tail call i64 @fwrite(ptr noundef nonnull %9, i64 noundef 4, i64 noundef 1, ptr noundef nonnull %4)
  %11 = getelementptr inbounds nuw i8, ptr %3, i64 8
  %12 = tail call i64 @fwrite(ptr noundef nonnull %11, i64 noundef 4, i64 noundef 1, ptr noundef nonnull %4)
  %13 = getelementptr inbounds nuw i8, ptr %3, i64 16
  %14 = load ptr, ptr %13, align 8, !tbaa !3
  %15 = load i32, ptr %9, align 4, !tbaa !13
  %16 = sext i32 %15 to i64
  %17 = tail call i64 @fwrite(ptr noundef %14, i64 noundef 4, i64 noundef %16, ptr noundef nonnull %4)
  %18 = tail call i32 @fclose(ptr noundef nonnull %4)
  br label %Mini_AigDump.exit

Mini_AigDump.exit:                                ; preds = %6, %8
  %19 = phi ptr [ %.pre, %6 ], [ %14, %8 ]
  %.not.i = icmp eq ptr %19, null
  br i1 %.not.i, label %Mini_AigStop.exit, label %20

20:                                               ; preds = %Mini_AigDump.exit
  tail call void @free(ptr noundef nonnull %19) #25
  br label %Mini_AigStop.exit

Mini_AigStop.exit:                                ; preds = %Mini_AigDump.exit, %20
  tail call void @free(ptr noundef nonnull %3) #25
  ret void
}